target datalayout = "e-m:e-p270:32:32-p271:32:32-p272:64:64-i64:64-i128:128-f80:128-n8:16:32:64-S128"
target triple = "x86_64-pc-linux-gnu"

@hf_aim_icbm_notification_cookie = internal global i32 0, align 4
@hf_aim_icbm_notification_channel = internal global i32 0, align 4
@hf_aim_icbm_notification_type = internal global i32 0, align 4

; Function Attrs: null_pointer_is_valid sspstrong uwtable
define internal i32 @dissect_aim_msg_minityping(ptr noundef %0, ptr noundef %1, ptr noundef %2) #0 {
  %4 = alloca ptr, align 8
  %5 = alloca ptr, align 8
  %6 = alloca ptr, align 8
  %7 = alloca i32, align 4
  store ptr %0, ptr %4, align 8
  store ptr %1, ptr %5, align 8
  store ptr %2, ptr %6, align 8
  call void @llvm.lifetime.start.p0(i64 4, ptr %7) #13
  store i32 0, ptr %7, align 4
  %8 = load ptr, ptr %6, align 8
  %9 = load i32, ptr @hf_aim_icbm_notification_cookie, align 4
  %10 = load ptr, ptr %4, align 8
  %11 = load i32, ptr %7, align 4
  %12 = call ptr @proto_tree_add_item(ptr noundef %8, i32 noundef %9, ptr noundef %10, i32 noundef %11, i32 noundef 8, i32 noundef 0)
  %13 = load i32, ptr %7, align 4
  %14 = add i32 %13, 8
  store i32 %14, ptr %7, align 4
  %15 = load ptr, ptr %6, align 8
  %16 = load i32, ptr @hf_aim_icbm_notification_channel, align 4
  %17 = load ptr, ptr %4, align 8
  %18 = load i32, ptr %7, align 4
  %19 = call ptr @proto_tree_add_item(ptr noundef %15, i32 noundef %16, ptr noundef %17, i32 noundef %18, i32 noundef 2, i32 noundef 0)
  %20 = load i32, ptr %7, align 4
  %21 = add i32 %20, 2
  store i32 %21, ptr %7, align 4
  %22 = load ptr, ptr %4, align 8
  %23 = load ptr, ptr %5, align 8
  %24 = load i32, ptr %7, align 4
  %25 = load ptr, ptr %6, align 8
  %26 = call i32 @dissect_aim_buddyname(ptr noundef %22, ptr noundef %23, i32 noundef %24, ptr noundef %25)
  store i32 %26, ptr %7, align 4
  %27 = load ptr, ptr %6, align 8
  %28 = load i32, ptr @hf_aim_icbm_notification_type, align 4
  %29 = load ptr, ptr %4, align 8
  %30 = load i32, ptr %7, align 4
  %31 = call ptr @proto_tree_add_item(ptr noundef %27, i32 noundef %28, ptr noundef %29, i32 noundef %30, i32 noundef 2, i32 noundef 0)
  %32 = load i32, ptr %7, align 4
  %33 = add i32 %32, 2
  store i32 %33, ptr %7, align 4
  %34 = load i32, ptr %7, align 4
  call void @llvm.lifetime.end.p0(i64 4, ptr %7) #13
  ret i32 %34
}