; Function Attrs: null_pointer_is_valid sspstrong uwtable
define internal noundef i32 @dissect_aim_msg_minityping(ptr noundef %0, ptr noundef readonly captures(none) %1, ptr noundef %2) #0 {
  %4 = load i32, ptr @hf_aim_icbm_notification_cookie, align 4
  %5 = tail call ptr @proto_tree_add_item(ptr noundef %2, i32 noundef %4, ptr noundef %0, i32 noundef 0, i32 noundef 8, i32 noundef 0)
  %6 = load i32, ptr @hf_aim_icbm_notification_channel, align 4
  %7 = tail call ptr @proto_tree_add_item(ptr noundef %2, i32 noundef %6, ptr noundef %0, i32 noundef 8, i32 noundef 2, i32 noundef 0)
  %8 = tail call fastcc i32 @dissect_aim_buddyname(ptr noundef %0, ptr noundef %1, i32 noundef 10, ptr noundef %2)
  %9 = load i32, ptr @hf_aim_icbm_notification_type, align 4
  %10 = tail call ptr @proto_tree_add_item(ptr noundef %2, i32 noundef %9, ptr noundef %0, i32 noundef %8, i32 noundef 2, i32 noundef 0)
  %11 = add i32 %8, 2
  ret i32 %11
}